target datalayout = "e-m:e-p270:32:32-p271:32:32-p272:64:64-i64:64-i128:128-f80:128-n8:16:32:64-S128"
target triple = "x86_64-pc-linux-gnu"

%struct.png_struct_def = type { [1 x %struct.__jmp_buf_tag], ptr, ptr, i64, ptr, ptr, ptr, ptr, ptr, ptr, ptr, ptr, ptr, i8, i8, i32, i32, i32, i32, %struct.z_stream_s, ptr, i32, i32, i32, i32, i32, i32, i32, i32, i32, i32, i32, i32, i32, i32, i32, i32, i32, i32, i32, i32, i64, i32, i32, i32, ptr, ptr, ptr, ptr, i64, i32, i32, ptr, i16, i32, i16, i8, i8, i8, i8, i8, i8, i8, i8, i8, i8, i8, i8, i8, i8, i8, i16, i8, i32, %struct.png_color_16_struct, %struct.png_color_16_struct, ptr, i32, i32, i32, i32, ptr, ptr, ptr, ptr, ptr, ptr, %struct.png_color_8_struct, %struct.png_color_8_struct, ptr, %struct.png_color_16_struct, ptr, ptr, ptr, ptr, ptr, ptr, ptr, ptr, ptr, i32, i32, i64, i64, i64, i64, i32, i32, ptr, ptr, i32, [29 x i8], i32, ptr, ptr, i32, i32, ptr, i8, i8, i16, i16, ptr, i32, i8, ptr, ptr, ptr, ptr, ptr, ptr, ptr, i8, i32, i32, i32, i64, %struct.png_unknown_chunk_t, i64, ptr, i64, i32, i32, ptr, [4 x ptr], %struct.png_colorspace }
%struct.__jmp_buf_tag = type { [8 x i64], i32, %struct.__sigset_t }
%struct.__sigset_t = type { [16 x i64] }
%struct.z_stream_s = type { ptr, i32, i64, ptr, i32, i64, ptr, ptr, ptr, ptr, ptr, i32, i64, i64 }
%struct.png_color_8_struct = type { i8, i8, i8, i8, i8 }
%struct.png_color_16_struct = type { i8, i16, i16, i16, i16 }
%struct.png_unknown_chunk_t = type { [5 x i8], ptr, i64, i8 }
%struct.png_colorspace = type { i32, %struct.png_xy, %struct.png_XYZ, i16, i16 }
%struct.png_xy = type { i32, i32, i32, i32, i32, i32, i32, i32 }
%struct.png_XYZ = type { i32, i32, i32, i32, i32, i32, i32, i32, i32 }
%struct.png_image_write_control = type { ptr, ptr, i32, ptr, i32, ptr, i64, ptr, ptr, i64, i64 }
%struct.png_image = type { ptr, i32, i32, i32, i32, i32, i32, i32, [64 x i8] }
%struct.png_control = type { ptr, ptr, ptr, ptr, i64, i8 }

@.str.17 = private unnamed_addr constant [43 x i8] c"png_image_write_to_stdio: invalid argument\00", align 1
@.str.18 = private unnamed_addr constant [54 x i8] c"png_image_write_to_stdio: incorrect PNG_IMAGE_VERSION\00", align 1
@.str.19 = private unnamed_addr constant [3 x i8] c"wb\00", align 1
@.str.20 = private unnamed_addr constant [42 x i8] c"png_image_write_to_file: invalid argument\00", align 1
@.str.21 = private unnamed_addr constant [53 x i8] c"png_image_write_to_file: incorrect PNG_IMAGE_VERSION\00", align 1

; Function Attrs: nounwind uwtable
define i32 @png_image_write_to_stdio(ptr noundef %0, ptr noundef %1, i32 noundef %2, ptr noundef %3, i32 noundef %4, ptr noundef %5) #0 {
  %7 = alloca i32, align 4
  %8 = alloca ptr, align 8
  %9 = alloca ptr, align 8
  %10 = alloca i32, align 4
  %11 = alloca ptr, align 8
  %12 = alloca i32, align 4
  %13 = alloca ptr, align 8
  %14 = alloca %struct.png_image_write_control, align 8
  %15 = alloca i32, align 4
  store ptr %0, ptr %8, align 8
  store ptr %1, ptr %9, align 8
  store i32 %2, ptr %10, align 4
  store ptr %3, ptr %11, align 8
  store i32 %4, ptr %12, align 4
  store ptr %5, ptr %13, align 8
  %16 = load ptr, ptr %8, align 8
  %17 = icmp ne ptr %16, null
  br i1 %17, label %18, label %59

18:                                               ; preds = %6
  %19 = load ptr, ptr %8, align 8
  %20 = getelementptr inbounds %struct.png_image, ptr %19, i32 0, i32 1
  %21 = load i32, ptr %20, align 8
  %22 = icmp eq i32 %21, 1
  br i1 %22, label %23, label %59

23:                                               ; preds = %18
  %24 = load ptr, ptr %9, align 8
  %25 = icmp ne ptr %24, null
  br i1 %25, label %26, label %56

26:                                               ; preds = %23
  %27 = load ptr, ptr %11, align 8
  %28 = icmp ne ptr %27, null
  br i1 %28, label %29, label %56

29:                                               ; preds = %26
  %30 = load ptr, ptr %8, align 8
  %31 = call i32 @png_image_write_init(ptr noundef %30)
  %32 = icmp ne i32 %31, 0
  br i1 %32, label %33, label %55

33:                                               ; preds = %29
  %34 = load ptr, ptr %9, align 8
  %35 = load ptr, ptr %8, align 8
  %36 = getelementptr inbounds %struct.png_image, ptr %35, i32 0, i32 0
  %37 = load ptr, ptr %36, align 8
  %38 = getelementptr inbounds %struct.png_control, ptr %37, i32 0, i32 0
  %39 = load ptr, ptr %38, align 8
  %40 = getelementptr inbounds %struct.png_struct_def, ptr %39, i32 0, i32 9
  store ptr %34, ptr %40, align 8
  call void @llvm.memset.p0.i64(ptr align 8 %14, i8 0, i64 88, i1 false)
  %41 = load ptr, ptr %8, align 8
  %42 = getelementptr inbounds %struct.png_image_write_control, ptr %14, i32 0, i32 0
  store ptr %41, ptr %42, align 8
  %43 = load ptr, ptr %11, align 8
  %44 = getelementptr inbounds %struct.png_image_write_control, ptr %14, i32 0, i32 1
  store ptr %43, ptr %44, align 8
  %45 = load i32, ptr %12, align 4
  %46 = getelementptr inbounds %struct.png_image_write_control, ptr %14, i32 0, i32 2
  store i32 %45, ptr %46, align 8
  %47 = load ptr, ptr %13, align 8
  %48 = getelementptr inbounds %struct.png_image_write_control, ptr %14, i32 0, i32 3
  store ptr %47, ptr %48, align 8
  %49 = load i32, ptr %10, align 4
  %50 = getelementptr inbounds %struct.png_image_write_control, ptr %14, i32 0, i32 4
  store i32 %49, ptr %50, align 8
  %51 = load ptr, ptr %8, align 8
  %52 = call i32 @png_safe_execute(ptr noundef %51, ptr noundef @png_image_write_main, ptr noundef %14)
  store i32 %52, ptr %15, align 4
  %53 = load ptr, ptr %8, align 8
  call void @png_image_free(ptr noundef %53)
  %54 = load i32, ptr %15, align 4
  store i32 %54, ptr %7, align 4
  br label %66

55:                                               ; preds = %29
  store i32 0, ptr %7, align 4
  br label %66

56:                                               ; preds = %26, %23
  %57 = load ptr, ptr %8, align 8
  %58 = call i32 @png_image_error(ptr noundef %57, ptr noundef @.str.17)
  store i32 %58, ptr %7, align 4
  br label %66

59:                                               ; preds = %18, %6
  %60 = load ptr, ptr %8, align 8
  %61 = icmp ne ptr %60, null
  br i1 %61, label %62, label %65

62:                                               ; preds = %59
  %63 = load ptr, ptr %8, align 8
  %64 = call i32 @png_image_error(ptr noundef %63, ptr noundef @.str.18)
  store i32 %64, ptr %7, align 4
  br label %66

65:                                               ; preds = %59
  store i32 0, ptr %7, align 4
  br label %66

66:                                               ; preds = %65, %62, %56, %55, %33
  %67 = load i32, ptr %7, align 4
  ret i32 %67
}

; Function Attrs: nounwind uwtable
define i32 @png_image_write_to_file(ptr noundef %0, ptr noundef %1, i32 noundef %2, ptr noundef %3, i32 noundef %4, ptr noundef %5) #0 {
  %7 = alloca i32, align 4
  %8 = alloca ptr, align 8
  %9 = alloca ptr, align 8
  %10 = alloca i32, align 4
  %11 = alloca ptr, align 8
  %12 = alloca i32, align 4
  %13 = alloca ptr, align 8
  %14 = alloca ptr, align 8
  %15 = alloca i32, align 4
  store ptr %0, ptr %8, align 8
  store ptr %1, ptr %9, align 8
  store i32 %2, ptr %10, align 4
  store ptr %3, ptr %11, align 8
  store i32 %4, ptr %12, align 4
  store ptr %5, ptr %13, align 8
  %16 = load ptr, ptr %8, align 8
  %17 = icmp ne ptr %16, null
  br i1 %17, label %18, label %85

18:                                               ; preds = %6
  %19 = load ptr, ptr %8, align 8
  %20 = getelementptr inbounds %struct.png_image, ptr %19, i32 0, i32 1
  %21 = load i32, ptr %20, align 8
  %22 = icmp eq i32 %21, 1
  br i1 %22, label %23, label %85

23:                                               ; preds = %18
  %24 = load ptr, ptr %9, align 8
  %25 = icmp ne ptr %24, null
  br i1 %25, label %26, label %82

26:                                               ; preds = %23
  %27 = load ptr, ptr %11, align 8
  %28 = icmp ne ptr %27, null
  br i1 %28, label %29, label %82

29:                                               ; preds = %26
  %30 = load ptr, ptr %9, align 8
  %31 = call noalias ptr @fopen(ptr noundef %30, ptr noundef @.str.19)
  store ptr %31, ptr %14, align 8
  %32 = load ptr, ptr %14, align 8
  %33 = icmp ne ptr %32, null
  br i1 %33, label %34, label %76

34:                                               ; preds = %29
  %35 = load ptr, ptr %8, align 8
  %36 = load ptr, ptr %14, align 8
  %37 = load i32, ptr %10, align 4
  %38 = load ptr, ptr %11, align 8
  %39 = load i32, ptr %12, align 4
  %40 = load ptr, ptr %13, align 8
  %41 = call i32 @png_image_write_to_stdio(ptr noundef %35, ptr noundef %36, i32 noundef %37, ptr noundef %38, i32 noundef %39, ptr noundef %40)
  %42 = icmp ne i32 %41, 0
  br i1 %42, label %43, label %71

43:                                               ; preds = %34
  %44 = load ptr, ptr %14, align 8
  %45 = call i32 @fflush(ptr noundef %44)
  %46 = icmp eq i32 %45, 0
  br i1 %46, label %47, label %59

47:                                               ; preds = %43
  %48 = load ptr, ptr %14, align 8
  %49 = call i32 @ferror(ptr noundef %48) #8
  %50 = icmp eq i32 %49, 0
  br i1 %50, label %51, label %59

51:                                               ; preds = %47
  %52 = load ptr, ptr %14, align 8
  %53 = call i32 @fclose(ptr noundef %52)
  %54 = icmp eq i32 %53, 0
  br i1 %54, label %55, label %56

55:                                               ; preds = %51
  store i32 1, ptr %7, align 4
  br label %92

56:                                               ; preds = %51
  %57 = call ptr @__errno_location() #9
  %58 = load i32, ptr %57, align 4
  store i32 %58, ptr %15, align 4
  br label %64

59:                                               ; preds = %47, %43
  %60 = call ptr @__errno_location() #9
  %61 = load i32, ptr %60, align 4
  store i32 %61, ptr %15, align 4
  %62 = load ptr, ptr %14, align 8
  %63 = call i32 @fclose(ptr noundef %62)
  br label %64

64:                                               ; preds = %59, %56
  %65 = load ptr, ptr %9, align 8
  %66 = call i32 @remove(ptr noundef %65) #8
  %67 = load ptr, ptr %8, align 8
  %68 = load i32, ptr %15, align 4
  %69 = call ptr @strerror(i32 noundef %68) #8
  %70 = call i32 @png_image_error(ptr noundef %67, ptr noundef %69)
  store i32 %70, ptr %7, align 4
  br label %92

71:                                               ; preds = %34
  %72 = load ptr, ptr %14, align 8
  %73 = call i32 @fclose(ptr noundef %72)
  %74 = load ptr, ptr %9, align 8
  %75 = call i32 @remove(ptr noundef %74) #8
  store i32 0, ptr %7, align 4
  br label %92

76:                                               ; preds = %29
  %77 = load ptr, ptr %8, align 8
  %78 = call ptr @__errno_location() #9
  %79 = load i32, ptr %78, align 4
  %80 = call ptr @strerror(i32 noundef %79) #8
  %81 = call i32 @png_image_error(ptr noundef %77, ptr noundef %80)
  store i32 %81, ptr %7, align 4
  br label %92

82:                                               ; preds = %26, %23
  %83 = load ptr, ptr %8, align 8
  %84 = call i32 @png_image_error(ptr noundef %83, ptr noundef @.str.20)
  store i32 %84, ptr %7, align 4
  br label %92

85:                                               ; preds = %18, %6
  %86 = load ptr, ptr %8, align 8
  %87 = icmp ne ptr %86, null
  br i1 %87, label %88, label %91

88:                                               ; preds = %85
  %89 = load ptr, ptr %8, align 8
  %90 = call i32 @png_image_error(ptr noundef %89, ptr noundef @.str.21)
  store i32 %90, ptr %7, align 4
  br label %92

91:                                               ; preds = %85
  store i32 0, ptr %7, align 4
  br label %92

92:                                               ; preds = %91, %88, %82, %76, %71, %64, %55
  %93 = load i32, ptr %7, align 4
  ret i32 %93
}