; Function Attrs: nounwind uwtable
define i32 @png_image_write_to_file(ptr noundef %0, ptr noundef readonly %1, i32 noundef %2, ptr noundef %3, i32 noundef %4, ptr noundef %5) local_unnamed_addr #0 {
  %7 = alloca %struct.png_image_write_control, align 8
  %.not = icmp eq ptr %0, null
  br i1 %.not, label %.critedge, label %8

8:                                                ; preds = %6
  %9 = getelementptr inbounds i8, ptr %0, i64 8
  %10 = load i32, ptr %9, align 8
  %11 = icmp eq i32 %10, 1
  br i1 %11, label %12, label %63

12:                                               ; preds = %8
  %13 = icmp ne ptr %1, null
  %14 = icmp ne ptr %3, null
  %or.cond = and i1 %13, %14
  br i1 %or.cond, label %15, label %61

15:                                               ; preds = %12
  %16 = tail call noalias ptr @fopen(ptr noundef nonnull %1, ptr noundef nonnull @.str.19)
  %.not31 = icmp eq ptr %16, null
  br i1 %.not31, label %56, label %17

17:                                               ; preds = %15
  call void @llvm.lifetime.start.p0(i64 88, ptr nonnull %7)
  %18 = load i32, ptr %9, align 8
  %19 = icmp eq i32 %18, 1
  br i1 %19, label %20, label %31

20:                                               ; preds = %17
  %21 = tail call fastcc i32 @png_image_write_init(ptr noundef nonnull %0)
  %.not22.i = icmp eq i32 %21, 0
  br i1 %.not22.i, label %png_image_write_to_stdio.exit.thread, label %22

png_image_write_to_stdio.exit.thread:             ; preds = %20
  call void @llvm.lifetime.end.p0(i64 88, ptr nonnull %7)
  br label %53

22:                                               ; preds = %20
  %23 = load ptr, ptr %0, align 8
  %24 = load ptr, ptr %23, align 8
  %25 = getelementptr inbounds i8, ptr %24, i64 264
  store ptr %16, ptr %25, align 8
  %26 = getelementptr inbounds i8, ptr %7, i64 16
  call void @llvm.memset.p0.i64(ptr noundef nonnull align 8 dereferenceable(88) %26, i8 0, i64 72, i1 false)
  store ptr %0, ptr %7, align 8
  %27 = getelementptr inbounds i8, ptr %7, i64 8
  store ptr %3, ptr %27, align 8
  store i32 %4, ptr %26, align 8
  %28 = getelementptr inbounds i8, ptr %7, i64 24
  store ptr %5, ptr %28, align 8
  %29 = getelementptr inbounds i8, ptr %7, i64 32
  store i32 %2, ptr %29, align 8
  %30 = call i32 @png_safe_execute(ptr noundef nonnull %0, ptr noundef nonnull @png_image_write_main, ptr noundef nonnull %7) #15
  call void @png_image_free(ptr noundef nonnull %0) #15
  br label %png_image_write_to_stdio.exit

31:                                               ; preds = %17
  %32 = tail call i32 @png_image_error(ptr noundef nonnull %0, ptr noundef nonnull @.str.18) #15
  br label %png_image_write_to_stdio.exit

png_image_write_to_stdio.exit:                    ; preds = %22, %31
  %.0.i = phi i32 [ %30, %22 ], [ %32, %31 ]
  call void @llvm.lifetime.end.p0(i64 88, ptr nonnull %7)
  %.not32 = icmp eq i32 %.0.i, 0
  br i1 %.not32, label %53, label %33

33:                                               ; preds = %png_image_write_to_stdio.exit
  %34 = call i32 @fflush(ptr noundef nonnull %16)
  %35 = icmp eq i32 %34, 0
  br i1 %35, label %36, label %45

36:                                               ; preds = %33
  %37 = call i32 @ferror(ptr noundef nonnull %16) #15
  %38 = icmp eq i32 %37, 0
  br i1 %38, label %39, label %45

39:                                               ; preds = %36
  %40 = call i32 @fclose(ptr noundef nonnull %16)
  %41 = icmp eq i32 %40, 0
  br i1 %41, label %.critedge, label %42

42:                                               ; preds = %39
  %43 = tail call ptr @__errno_location() #17
  %44 = load i32, ptr %43, align 4
  br label %49

45:                                               ; preds = %36, %33
  %46 = tail call ptr @__errno_location() #17
  %47 = load i32, ptr %46, align 4
  %48 = call i32 @fclose(ptr noundef nonnull %16)
  br label %49

49:                                               ; preds = %45, %42
  %.0 = phi i32 [ %44, %42 ], [ %47, %45 ]
  %50 = call i32 @remove(ptr noundef nonnull %1) #15
  %51 = call ptr @strerror(i32 noundef %.0) #15
  %52 = call i32 @png_image_error(ptr noundef nonnull %0, ptr noundef %51) #15
  br label %.critedge

53:                                               ; preds = %png_image_write_to_stdio.exit.thread, %png_image_write_to_stdio.exit
  %54 = call i32 @fclose(ptr noundef nonnull %16)
  %55 = call i32 @remove(ptr noundef nonnull %1) #15
  br label %.critedge

56:                                               ; preds = %15
  %57 = tail call ptr @__errno_location() #17
  %58 = load i32, ptr %57, align 4
  %59 = tail call ptr @strerror(i32 noundef %58) #15
  %60 = tail call i32 @png_image_error(ptr noundef nonnull %0, ptr noundef %59) #15
  br label %.critedge

61:                                               ; preds = %12
  %62 = tail call i32 @png_image_error(ptr noundef nonnull %0, ptr noundef nonnull @.str.20) #15
  br label %.critedge

63:                                               ; preds = %8
  %64 = tail call i32 @png_image_error(ptr noundef nonnull %0, ptr noundef nonnull @.str.21) #15
  br label %.critedge

.critedge:                                        ; preds = %6, %39, %63, %61, %56, %53, %49
  %.026 = phi i32 [ %52, %49 ], [ 0, %53 ], [ %60, %56 ], [ %62, %61 ], [ %64, %63 ], [ 1, %39 ], [ 0, %6 ]
  ret i32 %.026
}